target datalayout = "e-m:e-p270:32:32-p271:32:32-p272:64:64-i64:64-i128:128-f80:128-n8:16:32:64-S128"
target triple = "x86_64-pc-linux-gnu"

%struct.ParseState = type { ptr, ptr, i32, i32, ptr, ptr, ptr, ptr, ptr, ptr, i8, ptr, ptr, ptr, ptr, ptr, ptr, i8, ptr, i32, i32, ptr, ptr, i8, i8, ptr, i8, i8, i8, i8, i8, ptr, ptr, ptr, ptr, ptr, ptr }
%struct.List = type { i32, i32, i32, ptr, [0 x %union.ListCell] }
%union.ListCell = type { ptr }
%struct.RangeTblEntry = type { i32, ptr, ptr, i32, i32, i8, i8, i32, i32, ptr, ptr, i8, i32, i32, ptr, ptr, ptr, ptr, ptr, i8, ptr, ptr, ptr, i32, i8, ptr, ptr, ptr, ptr, double, ptr, i8, i8, ptr }
%struct.RTEPermissionInfo = type { i32, i32, i8, i64, i32, ptr, ptr, ptr }
%struct.JoinExpr = type { i32, i32, i8, ptr, ptr, ptr, ptr, ptr, ptr, i32 }
%struct.Node = type { i32 }
%struct.RangeTblRef = type { i32, i32 }

@.str.1 = private unnamed_addr constant [17 x i8] c"parse_relation.c\00", align 1
@.str.70 = private unnamed_addr constant [48 x i8] c"could not find JoinExpr for whole-row reference\00", align 1
@__func__.markRTEForSelectPriv = private unnamed_addr constant [21 x i8] c"markRTEForSelectPriv\00", align 1
@.str.71 = private unnamed_addr constant [27 x i8] c"unrecognized node type: %d\00", align 1

; Function Attrs: inlinehint nounwind uwtable
define internal ptr @list_nth_cell(ptr noundef %0, i32 noundef %1) #6 {
  %3 = alloca ptr, align 8
  %4 = alloca i32, align 4
  store ptr %0, ptr %3, align 8
  store i32 %1, ptr %4, align 4
  %5 = load ptr, ptr %3, align 8
  %6 = getelementptr inbounds nuw %struct.List, ptr %5, i32 0, i32 3
  %7 = load ptr, ptr %6, align 8
  %8 = load i32, ptr %4, align 4
  %9 = sext i32 %8 to i64
  %10 = getelementptr inbounds %union.ListCell, ptr %7, i64 %9
  ret ptr %10
}

; Function Attrs: inlinehint nounwind uwtable
define internal i32 @list_length(ptr noundef %0) #6 {
  %2 = alloca ptr, align 8
  store ptr %0, ptr %2, align 8
  %3 = load ptr, ptr %2, align 8
  %4 = icmp ne ptr %3, null
  br i1 %4, label %5, label %9

5:                                                ; preds = %1
  %6 = load ptr, ptr %2, align 8
  %7 = getelementptr inbounds nuw %struct.List, ptr %6, i32 0, i32 1
  %8 = load i32, ptr %7, align 4
  br label %10

9:                                                ; preds = %1
  br label %10

10:                                               ; preds = %9, %5
  %11 = phi i32 [ %8, %5 ], [ 0, %9 ]
  ret i32 %11
}

; Function Attrs: inlinehint nounwind uwtable
define internal ptr @list_nth(ptr noundef %0, i32 noundef %1) #6 {
  %3 = alloca ptr, align 8
  %4 = alloca i32, align 4
  store ptr %0, ptr %3, align 8
  store i32 %1, ptr %4, align 4
  %5 = load ptr, ptr %3, align 8
  %6 = load i32, ptr %4, align 4
  %7 = call ptr @list_nth_cell(ptr noundef %5, i32 noundef %6)
  %8 = load ptr, ptr %7, align 8
  ret ptr %8
}

; Function Attrs: nounwind uwtable
define internal void @markRTEForSelectPriv(ptr noundef %0, i32 noundef %1, i16 noundef signext %2) #0 {
  %4 = alloca ptr, align 8
  %5 = alloca i32, align 4
  %6 = alloca i16, align 2
  %7 = alloca ptr, align 8
  %8 = alloca ptr, align 8
  %9 = alloca ptr, align 8
  %10 = alloca i32, align 4
  %11 = alloca i32, align 4
  %12 = alloca i32, align 4
  %13 = alloca i32, align 4
  store ptr %0, ptr %4, align 8
  store i32 %1, ptr %5, align 4
  store i16 %2, ptr %6, align 2
  call void @llvm.lifetime.start.p0(i64 8, ptr %7) #8
  %14 = load ptr, ptr %4, align 8
  %15 = getelementptr inbounds nuw %struct.ParseState, ptr %14, i32 0, i32 4
  %16 = load ptr, ptr %15, align 8
  %17 = load i32, ptr %5, align 4
  %18 = sub i32 %17, 1
  %19 = call ptr @list_nth(ptr noundef %16, i32 noundef %18)
  store ptr %19, ptr %7, align 8
  %20 = load ptr, ptr %7, align 8
  %21 = getelementptr inbounds nuw %struct.RangeTblEntry, ptr %20, i32 0, i32 3
  %22 = load i32, ptr %21, align 8
  %23 = icmp eq i32 %22, 0
  br i1 %23, label %24, label %43

24:                                               ; preds = %3
  call void @llvm.lifetime.start.p0(i64 8, ptr %8) #8
  %25 = load ptr, ptr %4, align 8
  %26 = getelementptr inbounds nuw %struct.ParseState, ptr %25, i32 0, i32 5
  %27 = load ptr, ptr %26, align 8
  %28 = load ptr, ptr %7, align 8
  %29 = call ptr @getRTEPermissionInfo(ptr noundef %27, ptr noundef %28)
  store ptr %29, ptr %8, align 8
  %30 = load ptr, ptr %8, align 8
  %31 = getelementptr inbounds nuw %struct.RTEPermissionInfo, ptr %30, i32 0, i32 3
  %32 = load i64, ptr %31, align 8
  %33 = or i64 %32, 2
  store i64 %33, ptr %31, align 8
  %34 = load ptr, ptr %8, align 8
  %35 = getelementptr inbounds nuw %struct.RTEPermissionInfo, ptr %34, i32 0, i32 5
  %36 = load ptr, ptr %35, align 8
  %37 = load i16, ptr %6, align 2
  %38 = sext i16 %37 to i32
  %39 = sub i32 %38, -7
  %40 = call ptr @bms_add_member(ptr noundef %36, i32 noundef %39)
  %41 = load ptr, ptr %8, align 8
  %42 = getelementptr inbounds nuw %struct.RTEPermissionInfo, ptr %41, i32 0, i32 5
  store ptr %40, ptr %42, align 8
  call void @llvm.lifetime.end.p0(i64 8, ptr %8) #8
  br label %182

43:                                               ; preds = %3
  %44 = load ptr, ptr %7, align 8
  %45 = getelementptr inbounds nuw %struct.RangeTblEntry, ptr %44, i32 0, i32 3
  %46 = load i32, ptr %45, align 8
  %47 = icmp eq i32 %46, 2
  br i1 %47, label %48, label %181

48:                                               ; preds = %43
  %49 = load i16, ptr %6, align 2
  %50 = sext i16 %49 to i32
  %51 = icmp eq i32 %50, 0
  br i1 %51, label %52, label %179

52:                                               ; preds = %48
  call void @llvm.lifetime.start.p0(i64 8, ptr %9) #8
  %53 = load i32, ptr %5, align 4
  %54 = icmp sgt i32 %53, 0
  br i1 %54, label %55, label %69

55:                                               ; preds = %52
  %56 = load i32, ptr %5, align 4
  %57 = load ptr, ptr %4, align 8
  %58 = getelementptr inbounds nuw %struct.ParseState, ptr %57, i32 0, i32 6
  %59 = load ptr, ptr %58, align 8
  %60 = call i32 @list_length(ptr noundef %59)
  %61 = icmp sle i32 %56, %60
  br i1 %61, label %62, label %69

62:                                               ; preds = %55
  %63 = load ptr, ptr %4, align 8
  %64 = getelementptr inbounds nuw %struct.ParseState, ptr %63, i32 0, i32 6
  %65 = load ptr, ptr %64, align 8
  %66 = load i32, ptr %5, align 4
  %67 = sub i32 %66, 1
  %68 = call ptr @list_nth(ptr noundef %65, i32 noundef %67)
  store ptr %68, ptr %9, align 8
  br label %70

69:                                               ; preds = %55, %52
  store ptr null, ptr %9, align 8
  br label %70

70:                                               ; preds = %69, %62
  %71 = load ptr, ptr %9, align 8
  %72 = icmp eq ptr %71, null
  br i1 %72, label %73, label %84

73:                                               ; preds = %70
  br label %74

74:                                               ; preds = %73
  br i1 true, label %75, label %77

75:                                               ; preds = %74
  %76 = call zeroext i1 @errstart_cold(i32 noundef 21, ptr noundef null) #9
  br i1 %76, label %79, label %81

77:                                               ; preds = %74
  %78 = call zeroext i1 @errstart(i32 noundef 21, ptr noundef null)
  br i1 %78, label %79, label %81

79:                                               ; preds = %77, %75
  %80 = call i32 (ptr, ...) @errmsg_internal(ptr noundef @.str.70)
  call void @errfinish(ptr noundef @.str.1, i32 noundef 1112, ptr noundef @__func__.markRTEForSelectPriv)
  br label %81

81:                                               ; preds = %79, %77, %75
  unreachable

82:                                               ; No predecessors!
  br label %83

83:                                               ; preds = %82
  br label %84

84:                                               ; preds = %83, %70
  %85 = load ptr, ptr %9, align 8
  %86 = getelementptr inbounds nuw %struct.JoinExpr, ptr %85, i32 0, i32 3
  %87 = load ptr, ptr %86, align 8
  %88 = getelementptr inbounds nuw %struct.Node, ptr %87, i32 0, i32 0
  %89 = load i32, ptr %88, align 4
  %90 = icmp eq i32 %89, 63
  br i1 %90, label %91, label %99

91:                                               ; preds = %84
  call void @llvm.lifetime.start.p0(i64 4, ptr %10) #8
  %92 = load ptr, ptr %9, align 8
  %93 = getelementptr inbounds nuw %struct.JoinExpr, ptr %92, i32 0, i32 3
  %94 = load ptr, ptr %93, align 8
  %95 = getelementptr inbounds nuw %struct.RangeTblRef, ptr %94, i32 0, i32 1
  %96 = load i32, ptr %95, align 4
  store i32 %96, ptr %10, align 4
  %97 = load ptr, ptr %4, align 8
  %98 = load i32, ptr %10, align 4
  call void @markRTEForSelectPriv(ptr noundef %97, i32 noundef %98, i16 noundef signext 0)
  call void @llvm.lifetime.end.p0(i64 4, ptr %10) #8
  br label %131

99:                                               ; preds = %84
  %100 = load ptr, ptr %9, align 8
  %101 = getelementptr inbounds nuw %struct.JoinExpr, ptr %100, i32 0, i32 3
  %102 = load ptr, ptr %101, align 8
  %103 = getelementptr inbounds nuw %struct.Node, ptr %102, i32 0, i32 0
  %104 = load i32, ptr %103, align 4
  %105 = icmp eq i32 %104, 64
  br i1 %105, label %106, label %114

106:                                              ; preds = %99
  call void @llvm.lifetime.start.p0(i64 4, ptr %11) #8
  %107 = load ptr, ptr %9, align 8
  %108 = getelementptr inbounds nuw %struct.JoinExpr, ptr %107, i32 0, i32 3
  %109 = load ptr, ptr %108, align 8
  %110 = getelementptr inbounds nuw %struct.JoinExpr, ptr %109, i32 0, i32 9
  %111 = load i32, ptr %110, align 8
  store i32 %111, ptr %11, align 4
  %112 = load ptr, ptr %4, align 8
  %113 = load i32, ptr %11, align 4
  call void @markRTEForSelectPriv(ptr noundef %112, i32 noundef %113, i16 noundef signext 0)
  call void @llvm.lifetime.end.p0(i64 4, ptr %11) #8
  br label %130

114:                                              ; preds = %99
  br label %115

115:                                              ; preds = %114
  br i1 true, label %116, label %118

116:                                              ; preds = %115
  %117 = call zeroext i1 @errstart_cold(i32 noundef 21, ptr noundef null) #9
  br i1 %117, label %120, label %127

118:                                              ; preds = %115
  %119 = call zeroext i1 @errstart(i32 noundef 21, ptr noundef null)
  br i1 %119, label %120, label %127

120:                                              ; preds = %118, %116
  %121 = load ptr, ptr %9, align 8
  %122 = getelementptr inbounds nuw %struct.JoinExpr, ptr %121, i32 0, i32 3
  %123 = load ptr, ptr %122, align 8
  %124 = getelementptr inbounds nuw %struct.Node, ptr %123, i32 0, i32 0
  %125 = load i32, ptr %124, align 4
  %126 = call i32 (ptr, ...) @errmsg_internal(ptr noundef @.str.71, i32 noundef %125)
  call void @errfinish(ptr noundef @.str.1, i32 noundef 1129, ptr noundef @__func__.markRTEForSelectPriv)
  br label %127

127:                                              ; preds = %120, %118, %116
  unreachable

128:                                              ; No predecessors!
  br label %129

129:                                              ; preds = %128
  br label %130

130:                                              ; preds = %129, %106
  br label %131

131:                                              ; preds = %130, %91
  %132 = load ptr, ptr %9, align 8
  %133 = getelementptr inbounds nuw %struct.JoinExpr, ptr %132, i32 0, i32 4
  %134 = load ptr, ptr %133, align 8
  %135 = getelementptr inbounds nuw %struct.Node, ptr %134, i32 0, i32 0
  %136 = load i32, ptr %135, align 4
  %137 = icmp eq i32 %136, 63
  br i1 %137, label %138, label %146

138:                                              ; preds = %131
  call void @llvm.lifetime.start.p0(i64 4, ptr %12) #8
  %139 = load ptr, ptr %9, align 8
  %140 = getelementptr inbounds nuw %struct.JoinExpr, ptr %139, i32 0, i32 4
  %141 = load ptr, ptr %140, align 8
  %142 = getelementptr inbounds nuw %struct.RangeTblRef, ptr %141, i32 0, i32 1
  %143 = load i32, ptr %142, align 4
  store i32 %143, ptr %12, align 4
  %144 = load ptr, ptr %4, align 8
  %145 = load i32, ptr %12, align 4
  call void @markRTEForSelectPriv(ptr noundef %144, i32 noundef %145, i16 noundef signext 0)
  call void @llvm.lifetime.end.p0(i64 4, ptr %12) #8
  br label %178

146:                                              ; preds = %131
  %147 = load ptr, ptr %9, align 8
  %148 = getelementptr inbounds nuw %struct.JoinExpr, ptr %147, i32 0, i32 4
  %149 = load ptr, ptr %148, align 8
  %150 = getelementptr inbounds nuw %struct.Node, ptr %149, i32 0, i32 0
  %151 = load i32, ptr %150, align 4
  %152 = icmp eq i32 %151, 64
  br i1 %152, label %153, label %161

153:                                              ; preds = %146
  call void @llvm.lifetime.start.p0(i64 4, ptr %13) #8
  %154 = load ptr, ptr %9, align 8
  %155 = getelementptr inbounds nuw %struct.JoinExpr, ptr %154, i32 0, i32 4
  %156 = load ptr, ptr %155, align 8
  %157 = getelementptr inbounds nuw %struct.JoinExpr, ptr %156, i32 0, i32 9
  %158 = load i32, ptr %157, align 8
  store i32 %158, ptr %13, align 4
  %159 = load ptr, ptr %4, align 8
  %160 = load i32, ptr %13, align 4
  call void @markRTEForSelectPriv(ptr noundef %159, i32 noundef %160, i16 noundef signext 0)
  call void @llvm.lifetime.end.p0(i64 4, ptr %13) #8
  br label %177

161:                                              ; preds = %146
  br label %162

162:                                              ; preds = %161
  br i1 true, label %163, label %165

163:                                              ; preds = %162
  %164 = call zeroext i1 @errstart_cold(i32 noundef 21, ptr noundef null) #9
  br i1 %164, label %167, label %174

165:                                              ; preds = %162
  %166 = call zeroext i1 @errstart(i32 noundef 21, ptr noundef null)
  br i1 %166, label %167, label %174

167:                                              ; preds = %165, %163
  %168 = load ptr, ptr %9, align 8
  %169 = getelementptr inbounds nuw %struct.JoinExpr, ptr %168, i32 0, i32 4
  %170 = load ptr, ptr %169, align 8
  %171 = getelementptr inbounds nuw %struct.Node, ptr %170, i32 0, i32 0
  %172 = load i32, ptr %171, align 4
  %173 = call i32 (ptr, ...) @errmsg_internal(ptr noundef @.str.71, i32 noundef %172)
  call void @errfinish(ptr noundef @.str.1, i32 noundef 1144, ptr noundef @__func__.markRTEForSelectPriv)
  br label %174

174:                                              ; preds = %167, %165, %163
  unreachable

175:                                              ; No predecessors!
  br label %176

176:                                              ; preds = %175
  br label %177

177:                                              ; preds = %176, %153
  br label %178

178:                                              ; preds = %177, %138
  call void @llvm.lifetime.end.p0(i64 8, ptr %9) #8
  br label %180

179:                                              ; preds = %48
  br label %180

180:                                              ; preds = %179, %178
  br label %181

181:                                              ; preds = %180, %43
  br label %182

182:                                              ; preds = %181, %24
  call void @llvm.lifetime.end.p0(i64 8, ptr %7) #8
  ret void
}