; Function Attrs: nounwind uwtable
define internal fastcc void @markRTEForSelectPriv(ptr noundef readonly captures(none) %0, i32 noundef %1, i16 noundef signext %2) unnamed_addr #0 {
  %4 = getelementptr inbounds nuw i8, ptr %0, i64 24
  %5 = load ptr, ptr %4, align 8
  %6 = add i32 %1, -1
  %7 = getelementptr i8, ptr %5, i64 16
  %.val4058 = load ptr, ptr %7, align 8
  %8 = sext i32 %6 to i64
  %9 = getelementptr inbounds %union.ListCell, ptr %.val4058, i64 %8
  %10 = load ptr, ptr %9, align 8
  %11 = getelementptr inbounds nuw i8, ptr %10, i64 24
  %12 = load i32, ptr %11, align 8
  %13 = icmp eq i32 %12, 0
  br i1 %13, label %tailrecurse._crit_edge, label %.lr.ph

.lr.ph:                                           ; preds = %3
  %14 = getelementptr inbounds nuw i8, ptr %0, i64 40
  %15 = icmp eq i16 %2, 0
  br label %27

tailrecurse._crit_edge:                           ; preds = %tailrecurse.backedge, %3
  %.tr44.lcssa = phi i16 [ %2, %3 ], [ 0, %tailrecurse.backedge ]
  %.lcssa = phi ptr [ %10, %3 ], [ %67, %tailrecurse.backedge ]
  %16 = getelementptr inbounds nuw i8, ptr %0, i64 32
  %17 = load ptr, ptr %16, align 8
  %18 = tail call ptr @getRTEPermissionInfo(ptr noundef %17, ptr noundef nonnull %.lcssa)
  %19 = getelementptr inbounds nuw i8, ptr %18, i64 16
  %20 = load i64, ptr %19, align 8
  %21 = or i64 %20, 2
  store i64 %21, ptr %19, align 8
  %22 = getelementptr inbounds nuw i8, ptr %18, i64 32
  %23 = load ptr, ptr %22, align 8
  %24 = sext i16 %.tr44.lcssa to i32
  %25 = add nsw i32 %24, 7
  %26 = tail call ptr @bms_add_member(ptr noundef %23, i32 noundef %25) #11
  store ptr %26, ptr %22, align 8
  br label %.loopexit

27:                                               ; preds = %.lr.ph, %tailrecurse.backedge
  %28 = phi i32 [ %12, %.lr.ph ], [ %69, %tailrecurse.backedge ]
  %29 = phi i64 [ %8, %.lr.ph ], [ %65, %tailrecurse.backedge ]
  %.tr4460 = phi i1 [ %15, %.lr.ph ], [ true, %tailrecurse.backedge ]
  %.tr4359 = phi i32 [ %1, %.lr.ph ], [ %.tr43.be, %tailrecurse.backedge ]
  %30 = icmp eq i32 %28, 2
  %or.cond = and i1 %.tr4460, %30
  br i1 %or.cond, label %31, label %.loopexit

31:                                               ; preds = %27
  %32 = icmp sgt i32 %.tr4359, 0
  br i1 %32, label %33, label %.thread

33:                                               ; preds = %31
  %34 = load ptr, ptr %14, align 8
  %.not.i = icmp eq ptr %34, null
  br i1 %.not.i, label %.thread, label %list_length.exit

list_length.exit:                                 ; preds = %33
  %35 = getelementptr inbounds nuw i8, ptr %34, i64 4
  %36 = load i32, ptr %35, align 4
  %.not = icmp sgt i32 %.tr4359, %36
  br i1 %.not, label %.thread, label %37

37:                                               ; preds = %list_length.exit
  %38 = getelementptr i8, ptr %34, i64 16
  %.val = load ptr, ptr %38, align 8
  %39 = getelementptr inbounds %union.ListCell, ptr %.val, i64 %29
  %40 = load ptr, ptr %39, align 8
  %41 = icmp eq ptr %40, null
  br i1 %41, label %.thread, label %44

.thread:                                          ; preds = %33, %31, %list_length.exit, %37
  %42 = tail call zeroext i1 @errstart_cold(i32 noundef 21, ptr noundef null) #13
  tail call void @llvm.assume(i1 %42)
  %43 = tail call i32 (ptr, ...) @errmsg_internal(ptr noundef nonnull @.str.70) #11
  tail call void @errfinish(ptr noundef nonnull @.str.1, i32 noundef 1112, ptr noundef nonnull @__func__.markRTEForSelectPriv) #11
  unreachable

44:                                               ; preds = %37
  %45 = getelementptr inbounds nuw i8, ptr %40, i64 16
  %46 = load ptr, ptr %45, align 8
  %47 = load i32, ptr %46, align 4
  switch i32 %47, label %49 [
    i32 63, label %55
    i32 64, label %48
  ]

48:                                               ; preds = %44
  br label %55

49:                                               ; preds = %44
  %50 = getelementptr inbounds nuw i8, ptr %40, i64 16
  %51 = tail call zeroext i1 @errstart_cold(i32 noundef 21, ptr noundef null) #13
  tail call void @llvm.assume(i1 %51)
  %52 = load ptr, ptr %50, align 8
  %53 = load i32, ptr %52, align 4
  %54 = tail call i32 (ptr, ...) @errmsg_internal(ptr noundef nonnull @.str.71, i32 noundef %53) #11
  tail call void @errfinish(ptr noundef nonnull @.str.1, i32 noundef 1129, ptr noundef nonnull @__func__.markRTEForSelectPriv) #11
  unreachable

55:                                               ; preds = %44, %48
  %.sink79 = phi i64 [ 64, %48 ], [ 4, %44 ]
  %56 = getelementptr inbounds nuw i8, ptr %46, i64 %.sink79
  %.sink = load i32, ptr %56, align 4
  tail call fastcc void @markRTEForSelectPriv(ptr noundef nonnull %0, i32 noundef %.sink, i16 noundef signext 0)
  %57 = getelementptr inbounds nuw i8, ptr %40, i64 24
  %58 = load ptr, ptr %57, align 8
  %59 = load i32, ptr %58, align 4
  switch i32 %59, label %71 [
    i32 63, label %60
    i32 64, label %tailrecurse.backedge
  ]

60:                                               ; preds = %55
  br label %tailrecurse.backedge

tailrecurse.backedge:                             ; preds = %55, %60
  %.sink74 = phi i64 [ 4, %60 ], [ 64, %55 ]
  %61 = getelementptr inbounds nuw i8, ptr %58, i64 %.sink74
  %.tr43.be = load i32, ptr %61, align 4
  %62 = load ptr, ptr %4, align 8
  %63 = add i32 %.tr43.be, -1
  %64 = getelementptr i8, ptr %62, i64 16
  %.val40 = load ptr, ptr %64, align 8
  %65 = sext i32 %63 to i64
  %66 = getelementptr inbounds %union.ListCell, ptr %.val40, i64 %65
  %67 = load ptr, ptr %66, align 8
  %68 = getelementptr inbounds nuw i8, ptr %67, i64 24
  %69 = load i32, ptr %68, align 8
  %70 = icmp eq i32 %69, 0
  br i1 %70, label %tailrecurse._crit_edge, label %27

71:                                               ; preds = %55
  %72 = getelementptr inbounds nuw i8, ptr %40, i64 24
  %73 = tail call zeroext i1 @errstart_cold(i32 noundef 21, ptr noundef null) #13
  tail call void @llvm.assume(i1 %73)
  %74 = load ptr, ptr %72, align 8
  %75 = load i32, ptr %74, align 4
  %76 = tail call i32 (ptr, ...) @errmsg_internal(ptr noundef nonnull @.str.71, i32 noundef %75) #11
  tail call void @errfinish(ptr noundef nonnull @.str.1, i32 noundef 1144, ptr noundef nonnull @__func__.markRTEForSelectPriv) #11
  unreachable

.loopexit:                                        ; preds = %27, %tailrecurse._crit_edge
  ret void
}